; ModuleID = 'source-C-CXX/53/1696.cpp'
source_filename = "source-C-CXX/53/1696.cpp"
target datalayout = "e-m:e-p270:32:32-p271:32:32-p272:64:64-i64:64-f80:128-n8:16:32:64-S128"
target triple = "x86_64-pc-linux-gnu"

%"class.std::ios_base::Init" = type { i8 }
%"class.std::basic_istream" = type { i32 (...)**, i64, %"class.std::basic_ios" }
%"class.std::basic_ios" = type { %"class.std::ios_base", %"class.std::basic_ostream"*, i8, i8, %"class.std::basic_streambuf"*, %"class.std::ctype"*, %"class.std::num_put"*, %"class.std::num_get"* }
%"class.std::ios_base" = type { i32 (...)**, i64, i64, i32, i32, i32, %"struct.std::ios_base::_Callback_list"*, %"struct.std::ios_base::_Words", [8 x %"struct.std::ios_base::_Words"], i32, %"struct.std::ios_base::_Words"*, %"class.std::locale" }
%"struct.std::ios_base::_Callback_list" = type { %"struct.std::ios_base::_Callback_list"*, void (i32, %"class.std::ios_base"*, i32)*, i32, i32 }
%"struct.std::ios_base::_Words" = type { i8*, i64 }
%"class.std::locale" = type { %"class.std::locale::_Impl"* }
%"class.std::locale::_Impl" = type { i32, %"class.std::locale::facet"**, i64, %"class.std::locale::facet"**, i8** }
%"class.std::locale::facet" = type <{ i32 (...)**, i32, [4 x i8] }>
%"class.std::basic_ostream" = type { i32 (...)**, %"class.std::basic_ios" }
%"class.std::basic_streambuf" = type { i32 (...)**, i8*, i8*, i8*, i8*, i8*, i8*, %"class.std::locale" }
%"class.std::ctype" = type <{ %"class.std::locale::facet.base", [4 x i8], %struct.__locale_struct*, i8, [7 x i8], i32*, i32*, i16*, i8, [256 x i8], [256 x i8], i8, [6 x i8] }>
%"class.std::locale::facet.base" = type <{ i32 (...)**, i32 }>
%struct.__locale_struct = type { [13 x %struct.__locale_data*], i16*, i32*, i32*, [13 x i8*] }
%struct.__locale_data = type opaque
%"class.std::num_put" = type { %"class.std::locale::facet.base", [4 x i8] }
%"class.std::num_get" = type { %"class.std::locale::facet.base", [4 x i8] }

@_ZStL8__ioinit = internal global %"class.std::ios_base::Init" zeroinitializer, align 1
@__dso_handle = external hidden global i8
@n = dso_local global i32 0, align 4
@k = dso_local global i32 0, align 4
@m = dso_local local_unnamed_addr global i32 0, align 4
@g = dso_local local_unnamed_addr global i32 0, align 4
@_ZSt3cin = external global %"class.std::basic_istream", align 8
@_ZSt4cout = external global %"class.std::basic_ostream", align 8
@llvm.global_ctors = appending global [1 x { i32, void ()*, i8* }] [{ i32, void ()*, i8* } { i32 65535, void ()* @_GLOBAL__sub_I_1696.cpp, i8* null }]

declare void @_ZNSt8ios_base4InitC1Ev(%"class.std::ios_base::Init"* nonnull align 1 dereferenceable(1)) unnamed_addr #0

; Function Attrs: nounwind
declare void @_ZNSt8ios_base4InitD1Ev(%"class.std::ios_base::Init"* nonnull align 1 dereferenceable(1)) unnamed_addr #1

; Function Attrs: nofree nounwind
declare i32 @__cxa_atexit(void (i8*)*, i8*, i8*) local_unnamed_addr #2

; Function Attrs: mustprogress norecurse sspstrong uwtable
define dso_local i32 @main() local_unnamed_addr #3 {
  %1 = tail call nonnull align 8 dereferenceable(16) %"class.std::basic_istream"* @_ZNSirsERi(%"class.std::basic_istream"* nonnull align 8 dereferenceable(16) @_ZSt3cin, i32* nonnull align 4 dereferenceable(4) @n)
  %2 = tail call nonnull align 8 dereferenceable(16) %"class.std::basic_istream"* @_ZNSirsERi(%"class.std::basic_istream"* nonnull align 8 dereferenceable(16) %1, i32* nonnull align 4 dereferenceable(4) @k)
  %3 = load i32, i32* @g, align 4, !tbaa !5
  %4 = icmp eq i32 %3, 0
  br i1 %4, label %5, label %8

5:                                                ; preds = %0
  %6 = load i32, i32* @n, align 4, !tbaa !5
  %7 = load i32, i32* @k, align 4
  br label %9

8:                                                ; preds = %33, %0
  ret i32 0

9:                                                ; preds = %5, %33
  %10 = phi i32 [ %35, %33 ], [ %7, %5 ]
  %11 = phi i32 [ %36, %33 ], [ %6, %5 ]
  %12 = phi i32 [ %37, %33 ], [ 1, %5 ]
  %13 = add nsw i32 %11, -1
  %14 = mul nsw i32 %13, %12
  store i32 %14, i32* @m, align 4, !tbaa !5
  %15 = icmp eq i32 %11, 0
  br i1 %15, label %16, label %22

16:                                               ; preds = %27, %9
  %17 = phi i32 [ %14, %9 ], [ %30, %27 ]
  store i32 1, i32* @g, align 4, !tbaa !5
  %18 = tail call nonnull align 8 dereferenceable(8) %"class.std::basic_ostream"* @_ZNSolsEi(%"class.std::basic_ostream"* nonnull align 8 dereferenceable(8) @_ZSt4cout, i32 %17)
  %19 = load i32, i32* @n, align 4, !tbaa !5
  %20 = load i32, i32* @k, align 4
  %21 = load i32, i32* @g, align 4, !tbaa !5
  br label %33

22:                                               ; preds = %9, %27
  %23 = phi i32 [ %30, %27 ], [ %14, %9 ]
  %24 = phi i32 [ %31, %27 ], [ 0, %9 ]
  %25 = srem i32 %23, %13
  %26 = icmp eq i32 %25, 0
  br i1 %26, label %27, label %33

27:                                               ; preds = %22
  %28 = mul nsw i32 %23, %11
  %29 = sdiv i32 %28, %13
  %30 = add nsw i32 %29, %10
  store i32 %30, i32* @m, align 4, !tbaa !5
  %31 = add nuw nsw i32 %24, 1
  %32 = icmp eq i32 %11, %31
  br i1 %32, label %16, label %22

33:                                               ; preds = %22, %16
  %34 = phi i32 [ %21, %16 ], [ 0, %22 ]
  %35 = phi i32 [ %20, %16 ], [ %10, %22 ]
  %36 = phi i32 [ %19, %16 ], [ %11, %22 ]
  %37 = add nuw nsw i32 %12, 1
  %38 = icmp eq i32 %34, 0
  br i1 %38, label %9, label %8, !llvm.loop !9
}

declare nonnull align 8 dereferenceable(16) %"class.std::basic_istream"* @_ZNSirsERi(%"class.std::basic_istream"* nonnull align 8 dereferenceable(16), i32* nonnull align 4 dereferenceable(4)) local_unnamed_addr #0

; Function Attrs: mustprogress sspstrong uwtable
define dso_local void @_Z3plui(i32 %0) local_unnamed_addr #4 {
  %2 = load i32, i32* @n, align 4, !tbaa !5
  %3 = add nsw i32 %2, -1
  %4 = load i32, i32* @k, align 4
  %5 = icmp eq i32 %2, %0
  %6 = load i32, i32* @m, align 4, !tbaa !5
  br i1 %5, label %7, label %10

7:                                                ; preds = %15, %1
  %8 = phi i32 [ %6, %1 ], [ %18, %15 ]
  store i32 1, i32* @g, align 4, !tbaa !5
  %9 = tail call nonnull align 8 dereferenceable(8) %"class.std::basic_ostream"* @_ZNSolsEi(%"class.std::basic_ostream"* nonnull align 8 dereferenceable(8) @_ZSt4cout, i32 %8)
  br label %21

10:                                               ; preds = %1, %15
  %11 = phi i32 [ %18, %15 ], [ %6, %1 ]
  %12 = phi i32 [ %19, %15 ], [ %0, %1 ]
  %13 = srem i32 %11, %3
  %14 = icmp eq i32 %13, 0
  br i1 %14, label %15, label %21

15:                                               ; preds = %10
  %16 = mul nsw i32 %11, %2
  %17 = sdiv i32 %16, %3
  %18 = add nsw i32 %4, %17
  store i32 %18, i32* @m, align 4, !tbaa !5
  %19 = add nsw i32 %12, 1
  %20 = icmp eq i32 %2, %19
  br i1 %20, label %7, label %10

21:                                               ; preds = %10, %7
  ret void
}

declare nonnull align 8 dereferenceable(8) %"class.std::basic_ostream"* @_ZNSolsEi(%"class.std::basic_ostream"* nonnull align 8 dereferenceable(8), i32) local_unnamed_addr #0

; Function Attrs: sspstrong uwtable
define internal void @_GLOBAL__sub_I_1696.cpp() #5 section ".text.startup" {
  tail call void @_ZNSt8ios_base4InitC1Ev(%"class.std::ios_base::Init"* nonnull align 1 dereferenceable(1) @_ZStL8__ioinit)
  %1 = tail call i32 @__cxa_atexit(void (i8*)* bitcast (void (%"class.std::ios_base::Init"*)* @_ZNSt8ios_base4InitD1Ev to void (i8*)*), i8* getelementptr inbounds (%"class.std::ios_base::Init", %"class.std::ios_base::Init"* @_ZStL8__ioinit, i64 0, i32 0), i8* nonnull @__dso_handle) #6
  ret void
}


!llvm.module.flags = !{!0, !1, !2, !3}
!llvm.ident = !{!4}

!0 = !{i32 1, !"wchar_size", i32 4}
!1 = !{i32 7, !"PIC Level", i32 2}
!2 = !{i32 7, !"PIE Level", i32 2}
!3 = !{i32 7, !"uwtable", i32 1}
!4 = !{!"clang version 13.0.0"}
!5 = !{!6, !6, i64 0}
!6 = !{!"int", !7, i64 0}
!7 = !{!"omnipotent char", !8, i64 0}
!8 = !{!"Simple C++ TBAA"}
!9 = distinct !{!9, !10}
!10 = !{!"llvm.loop.mustprogress"}
